; ModuleID = '2642.cpp'
source_filename = "2642.cpp"
target datalayout = "e-m:e-p270:32:32-p271:32:32-p272:64:64-i64:64-f80:128-n8:16:32:64-S128"
target triple = "x86_64-pc-linux-gnu"

%"class.std::ios_base::Init" = type { i8 }
%"class.std::basic_istream" = type { i32 (...)**, i64, %"class.std::basic_ios" }
%"class.std::basic_ios" = type { %"class.std::ios_base", %"class.std::basic_ostream"*, i8, i8, %"class.std::basic_streambuf"*, %"class.std::ctype"*, %"class.std::num_put"*, %"class.std::num_get"* }
%"class.std::ios_base" = type { i32 (...)**, i64, i64, i32, i32, i32, %"struct.std::ios_base::_Callback_list"*, %"struct.std::ios_base::_Words", [8 x %"struct.std::ios_base::_Words"], i32, %"struct.std::ios_base::_Words"*, %"class.std::locale" }
%"struct.std::ios_base::_Callback_list" = type { %"struct.std::ios_base::_Callback_list"*, void (i32, %"class.std::ios_base"*, i32)*, i32, i32 }
%"struct.std::ios_base::_Words" = type { i8*, i64 }
%"class.std::locale" = type { %"class.std::locale::_Impl"* }
%"class.std::locale::_Impl" = type { i32, %"class.std::locale::facet"**, i64, %"class.std::locale::facet"**, i8** }
%"class.std::locale::facet" = type <{ i32 (...)**, i32, [4 x i8] }>
%"class.std::basic_ostream" = type { i32 (...)**, %"class.std::basic_ios" }
%"class.std::basic_streambuf" = type { i32 (...)**, i8*, i8*, i8*, i8*, i8*, i8*, %"class.std::locale" }
%"class.std::ctype" = type <{ %"class.std::locale::facet.base", [4 x i8], %struct.__locale_struct*, i8, [7 x i8], i32*, i32*, i16*, i8, [256 x i8], [256 x i8], i8, [6 x i8] }>
%"class.std::locale::facet.base" = type <{ i32 (...)**, i32 }>
%struct.__locale_struct = type { [13 x %struct.__locale_data*], i16*, i32*, i32*, [13 x i8*] }
%struct.__locale_data = type opaque
%"class.std::num_put" = type { %"class.std::locale::facet.base", [4 x i8] }
%"class.std::num_get" = type { %"class.std::locale::facet.base", [4 x i8] }

@_ZStL8__ioinit = internal global %"class.std::ios_base::Init" zeroinitializer, align 1
@__dso_handle = external hidden global i8
@_ZSt3cin = external dso_local global %"class.std::basic_istream", align 8
@_ZSt4cout = external dso_local global %"class.std::basic_ostream", align 8
@llvm.global_ctors = appending global [1 x { i32, void ()*, i8* }] [{ i32, void ()*, i8* } { i32 65535, void ()* @_GLOBAL__sub_I_2642.cpp, i8* null }]

; Function Attrs: noinline uwtable
define internal void @__cxx_global_var_init() #0 section ".text.startup" {
  call void @_ZNSt8ios_base4InitC1Ev(%"class.std::ios_base::Init"* @_ZStL8__ioinit)
  %1 = call i32 @__cxa_atexit(void (i8*)* bitcast (void (%"class.std::ios_base::Init"*)* @_ZNSt8ios_base4InitD1Ev to void (i8*)*), i8* getelementptr inbounds (%"class.std::ios_base::Init", %"class.std::ios_base::Init"* @_ZStL8__ioinit, i32 0, i32 0), i8* @__dso_handle) #3
  ret void
}

declare dso_local void @_ZNSt8ios_base4InitC1Ev(%"class.std::ios_base::Init"*) unnamed_addr #1

; Function Attrs: nounwind
declare dso_local void @_ZNSt8ios_base4InitD1Ev(%"class.std::ios_base::Init"*) unnamed_addr #2

; Function Attrs: nounwind
declare dso_local i32 @__cxa_atexit(void (i8*)*, i8*, i8*) #3

; Function Attrs: noinline norecurse uwtable
define dso_local i32 @main() #4 {
  %1 = alloca i32, align 4
  %2 = alloca i32, align 4
  %3 = alloca i32, align 4
  %4 = alloca i32, align 4
  %5 = alloca i32, align 4
  %6 = alloca i32, align 4
  %7 = alloca i32, align 4
  store i32 0, i32* %1, align 4
  %8 = call dereferenceable(280) %"class.std::basic_istream"* @_ZNSirsERi(%"class.std::basic_istream"* @_ZSt3cin, i32* dereferenceable(4) %2)
  %9 = load i32, i32* %2, align 4
  %10 = load i32, i32* %2, align 4
  %11 = add nsw i32 %10, 1
  %12 = mul nsw i32 %9, %11
  %13 = load i32, i32* %2, align 4
  %14 = mul nsw i32 2, %13
  %15 = add nsw i32 %14, 1
  %16 = mul nsw i32 %12, %15
  %17 = sdiv i32 %16, 6
  store i32 %17, i32* %4, align 4
  %18 = load i32, i32* %2, align 4
  %19 = icmp slt i32 %18, 7
  br i1 %19, label %20, label %23

20:                                               ; preds = %0
  %21 = load i32, i32* %4, align 4
  %22 = call dereferenceable(272) %"class.std::basic_ostream"* @_ZNSolsEi(%"class.std::basic_ostream"* @_ZSt4cout, i32 %21)
  store i32 0, i32* %1, align 4
  br label %90

23:                                               ; preds = %0
  store i32 0, i32* %5, align 4
  store i32 17, i32* %3, align 4
  br label %24

24:                                               ; preds = %34, %23
  %25 = load i32, i32* %3, align 4
  %26 = load i32, i32* %2, align 4
  %27 = icmp sle i32 %25, %26
  br i1 %27, label %28, label %37

28:                                               ; preds = %24
  %29 = load i32, i32* %5, align 4
  %30 = load i32, i32* %3, align 4
  %31 = load i32, i32* %3, align 4
  %32 = mul nsw i32 %30, %31
  %33 = add nsw i32 %29, %32
  store i32 %33, i32* %5, align 4
  br label %34

34:                                               ; preds = %28
  %35 = load i32, i32* %3, align 4
  %36 = add nsw i32 %35, 10
  store i32 %36, i32* %3, align 4
  br label %24

37:                                               ; preds = %24
  store i32 0, i32* %6, align 4
  store i32 7, i32* %3, align 4
  br label %38

38:                                               ; preds = %48, %37
  %39 = load i32, i32* %3, align 4
  %40 = load i32, i32* %2, align 4
  %41 = icmp sle i32 %39, %40
  br i1 %41, label %42, label %51

42:                                               ; preds = %38
  %43 = load i32, i32* %6, align 4
  %44 = load i32, i32* %3, align 4
  %45 = load i32, i32* %3, align 4
  %46 = mul nsw i32 %44, %45
  %47 = add nsw i32 %43, %46
  store i32 %47, i32* %6, align 4
  br label %48

48:                                               ; preds = %42
  %49 = load i32, i32* %3, align 4
  %50 = add nsw i32 %49, 7
  store i32 %50, i32* %3, align 4
  br label %38

51:                                               ; preds = %38
  store i32 0, i32* %7, align 4
  %52 = load i32, i32* %2, align 4
  %53 = icmp sgt i32 %52, 70
  br i1 %53, label %54, label %74

54:                                               ; preds = %51
  store i32 71, i32* %3, align 4
  br label %55

55:                                               ; preds = %70, %54
  %56 = load i32, i32* %3, align 4
  %57 = load i32, i32* %2, align 4
  %58 = icmp sle i32 %56, %57
  br i1 %58, label %59, label %62

59:                                               ; preds = %55
  %60 = load i32, i32* %3, align 4
  %61 = icmp sle i32 %60, 79
  br label %62

62:                                               ; preds = %59, %55
  %63 = phi i1 [ false, %55 ], [ %61, %59 ]
  br i1 %63, label %64, label %73

64:                                               ; preds = %62
  %65 = load i32, i32* %7, align 4
  %66 = load i32, i32* %3, align 4
  %67 = load i32, i32* %3, align 4
  %68 = mul nsw i32 %66, %67
  %69 = add nsw i32 %65, %68
  store i32 %69, i32* %7, align 4
  br label %70

70:                                               ; preds = %64
  %71 = load i32, i32* %3, align 4
  %72 = add nsw i32 %71, 1
  store i32 %72, i32* %3, align 4
  br label %55

73:                                               ; preds = %62
  br label %74

74:                                               ; preds = %73, %51
  %75 = load i32, i32* %4, align 4
  %76 = load i32, i32* %5, align 4
  %77 = sub nsw i32 %75, %76
  %78 = load i32, i32* %6, align 4
  %79 = sub nsw i32 %77, %78
  %80 = load i32, i32* %7, align 4
  %81 = sub nsw i32 %79, %80
  store i32 %81, i32* %4, align 4
  %82 = load i32, i32* %2, align 4
  %83 = icmp sge i32 %82, 77
  br i1 %83, label %84, label %87

84:                                               ; preds = %74
  %85 = load i32, i32* %4, align 4
  %86 = add nsw i32 %85, 11858
  store i32 %86, i32* %4, align 4
  br label %87

87:                                               ; preds = %84, %74
  %88 = load i32, i32* %4, align 4
  %89 = call dereferenceable(272) %"class.std::basic_ostream"* @_ZNSolsEi(%"class.std::basic_ostream"* @_ZSt4cout, i32 %88)
  store i32 0, i32* %1, align 4
  br label %90

90:                                               ; preds = %87, %20
  %91 = load i32, i32* %1, align 4
  ret i32 %91
}

declare dso_local dereferenceable(280) %"class.std::basic_istream"* @_ZNSirsERi(%"class.std::basic_istream"*, i32* dereferenceable(4)) #1

declare dso_local dereferenceable(272) %"class.std::basic_ostream"* @_ZNSolsEi(%"class.std::basic_ostream"*, i32) #1

; Function Attrs: noinline uwtable
define internal void @_GLOBAL__sub_I_2642.cpp() #0 section ".text.startup" {
  call void @__cxx_global_var_init()
  ret void
}


!llvm.module.flags = !{!0}
!llvm.ident = !{!1}

!0 = !{i32 1, !"wchar_size", i32 4}
!1 = !{!"clang version 10.0.0-4ubuntu1 "}
